target datalayout = "e-m:e-p270:32:32-p271:32:32-p272:64:64-i64:64-i128:128-f80:128-n8:16:32:64-S128"
target triple = "x86_64-pc-linux-gnu"

; Function Attrs: inlinehint nounwind uwtable
define available_externally ptr @bsearch(ptr noundef nonnull %0, ptr noundef nonnull %1, i64 noundef %2, i64 noundef %3, ptr noundef nonnull %4) #1 {
  %6 = alloca ptr, align 8
  %7 = alloca ptr, align 8
  %8 = alloca ptr, align 8
  %9 = alloca i64, align 8
  %10 = alloca i64, align 8
  %11 = alloca ptr, align 8
  %12 = alloca i64, align 8
  %13 = alloca i64, align 8
  %14 = alloca i64, align 8
  %15 = alloca ptr, align 8
  %16 = alloca i32, align 4
  %17 = alloca i32, align 4
  store ptr %0, ptr %7, align 8
  store ptr %1, ptr %8, align 8
  store i64 %2, ptr %9, align 8
  store i64 %3, ptr %10, align 8
  store ptr %4, ptr %11, align 8
  call void @llvm.lifetime.start.p0(i64 8, ptr %12) #4
  call void @llvm.lifetime.start.p0(i64 8, ptr %13) #4
  call void @llvm.lifetime.start.p0(i64 8, ptr %14) #4
  call void @llvm.lifetime.start.p0(i64 8, ptr %15) #4
  call void @llvm.lifetime.start.p0(i64 4, ptr %16) #4
  store i64 0, ptr %12, align 8
  %18 = load i64, ptr %9, align 8
  store i64 %18, ptr %13, align 8
  br label %19

19:                                               ; preds = %50, %5
  %20 = load i64, ptr %12, align 8
  %21 = load i64, ptr %13, align 8
  %22 = icmp ult i64 %20, %21
  br i1 %22, label %23, label %51

23:                                               ; preds = %19
  %24 = load i64, ptr %12, align 8
  %25 = load i64, ptr %13, align 8
  %26 = add i64 %24, %25
  %27 = udiv i64 %26, 2
  store i64 %27, ptr %14, align 8
  %28 = load ptr, ptr %8, align 8
  %29 = load i64, ptr %14, align 8
  %30 = load i64, ptr %10, align 8
  %31 = mul i64 %29, %30
  %32 = getelementptr inbounds nuw i8, ptr %28, i64 %31
  store ptr %32, ptr %15, align 8
  %33 = load ptr, ptr %11, align 8
  %34 = load ptr, ptr %7, align 8
  %35 = load ptr, ptr %15, align 8
  %36 = call i32 %33(ptr noundef %34, ptr noundef %35)
  store i32 %36, ptr %16, align 4
  %37 = load i32, ptr %16, align 4
  %38 = icmp slt i32 %37, 0
  br i1 %38, label %39, label %41

39:                                               ; preds = %23
  %40 = load i64, ptr %14, align 8
  store i64 %40, ptr %13, align 8
  br label %50

41:                                               ; preds = %23
  %42 = load i32, ptr %16, align 4
  %43 = icmp sgt i32 %42, 0
  br i1 %43, label %44, label %47

44:                                               ; preds = %41
  %45 = load i64, ptr %14, align 8
  %46 = add i64 %45, 1
  store i64 %46, ptr %12, align 8
  br label %49

47:                                               ; preds = %41
  %48 = load ptr, ptr %15, align 8
  store ptr %48, ptr %6, align 8
  store i32 1, ptr %17, align 4
  br label %52

49:                                               ; preds = %44
  br label %50

50:                                               ; preds = %49, %39
  br label %19, !llvm.loop !6

51:                                               ; preds = %19
  store ptr null, ptr %6, align 8
  store i32 1, ptr %17, align 4
  br label %52

52:                                               ; preds = %51, %47
  call void @llvm.lifetime.end.p0(i64 4, ptr %16) #4
  call void @llvm.lifetime.end.p0(i64 8, ptr %15) #4
  call void @llvm.lifetime.end.p0(i64 8, ptr %14) #4
  call void @llvm.lifetime.end.p0(i64 8, ptr %13) #4
  call void @llvm.lifetime.end.p0(i64 8, ptr %12) #4
  %53 = load ptr, ptr %6, align 8
  ret ptr %53
}

; Function Attrs: nounwind uwtable
define internal zeroext i1 @TransactionIdInArray(i32 noundef %0, ptr noundef %1, i64 noundef %2) #0 {
  %4 = alloca i32, align 4
  %5 = alloca ptr, align 8
  %6 = alloca i64, align 8
  store i32 %0, ptr %4, align 4
  store ptr %1, ptr %5, align 8
  store i64 %2, ptr %6, align 8
  %7 = load i64, ptr %6, align 8
  %8 = icmp ugt i64 %7, 0
  br i1 %8, label %9, label %14

9:                                                ; preds = %3
  %10 = load ptr, ptr %5, align 8
  %11 = load i64, ptr %6, align 8
  %12 = call ptr @bsearch(ptr noundef %4, ptr noundef %10, i64 noundef %11, i64 noundef 4, ptr noundef @xidComparator)
  %13 = icmp ne ptr %12, null
  br label %14

14:                                               ; preds = %9, %3
  %15 = phi i1 [ false, %3 ], [ %13, %9 ]
  ret i1 %15
}