; Function Attrs: nounwind uwtable
define internal fastcc noundef zeroext i1 @TransactionIdInArray(i32 noundef %0, ptr noundef %1, i64 noundef range(i64 -2147483648, 4294967296) %2) unnamed_addr #0 {
  %4 = alloca i32, align 4
  store i32 %0, ptr %4, align 4
  %.not = icmp eq i64 %2, 0
  br i1 %.not, label %bsearch.exit, label %.lr.ph.i

.lr.ph.i:                                         ; preds = %3, %14
  %.01621.i = phi i64 [ %.1.i, %14 ], [ 0, %3 ]
  %.01720.i = phi i64 [ %.118.i, %14 ], [ %2, %3 ]
  %5 = add i64 %.01720.i, %.01621.i
  %6 = lshr i64 %5, 1
  %7 = shl i64 %6, 2
  %8 = getelementptr inbounds nuw i8, ptr %1, i64 %7
  %9 = call i32 @xidComparator(ptr noundef nonnull %4, ptr noundef nonnull %8) #4
  %10 = icmp slt i32 %9, 0
  br i1 %10, label %14, label %11

11:                                               ; preds = %.lr.ph.i
  %.not.i = icmp eq i32 %9, 0
  br i1 %.not.i, label %bsearch.exit, label %12

12:                                               ; preds = %11
  %13 = add nuw i64 %6, 1
  br label %14

14:                                               ; preds = %12, %.lr.ph.i
  %.118.i = phi i64 [ %.01720.i, %12 ], [ %6, %.lr.ph.i ]
  %.1.i = phi i64 [ %13, %12 ], [ %.01621.i, %.lr.ph.i ]
  %15 = icmp ult i64 %.1.i, %.118.i
  br i1 %15, label %.lr.ph.i, label %bsearch.exit, !llvm.loop !4

bsearch.exit:                                     ; preds = %14, %11, %3
  %16 = phi i1 [ false, %3 ], [ true, %11 ], [ false, %14 ]
  ret i1 %16
}